target datalayout = "e-m:e-p270:32:32-p271:32:32-p272:64:64-i64:64-i128:128-f80:128-n8:16:32:64-S128"
target triple = "x86_64-pc-linux-gnu"

%struct.CostManager = type { ptr, i32, ptr, i64, [4095 x i64], ptr, ptr, [10 x %struct.CostInterval], ptr, ptr }
%struct.CostInterval = type { i64, i32, i32, i32, ptr, ptr }

; Function Attrs: inlinehint nounwind uwtable
define internal void @ConnectIntervals(ptr noundef %0, ptr noundef %1, ptr noundef %2) #3 {
  %4 = alloca ptr, align 8
  %5 = alloca ptr, align 8
  %6 = alloca ptr, align 8
  store ptr %0, ptr %4, align 8, !tbaa !18
  store ptr %1, ptr %5, align 8, !tbaa !62
  store ptr %2, ptr %6, align 8, !tbaa !62
  %7 = load ptr, ptr %5, align 8, !tbaa !62
  %8 = icmp ne ptr %7, null
  br i1 %8, label %9, label %13

9:                                                ; preds = %3
  %10 = load ptr, ptr %6, align 8, !tbaa !62
  %11 = load ptr, ptr %5, align 8, !tbaa !62
  %12 = getelementptr inbounds nuw %struct.CostInterval, ptr %11, i32 0, i32 5
  store ptr %10, ptr %12, align 8, !tbaa !66
  br label %17

13:                                               ; preds = %3
  %14 = load ptr, ptr %6, align 8, !tbaa !62
  %15 = load ptr, ptr %4, align 8, !tbaa !18
  %16 = getelementptr inbounds nuw %struct.CostManager, ptr %15, i32 0, i32 0
  store ptr %14, ptr %16, align 8, !tbaa !48
  br label %17

17:                                               ; preds = %13, %9
  %18 = load ptr, ptr %6, align 8, !tbaa !62
  %19 = icmp ne ptr %18, null
  br i1 %19, label %20, label %24

20:                                               ; preds = %17
  %21 = load ptr, ptr %5, align 8, !tbaa !62
  %22 = load ptr, ptr %6, align 8, !tbaa !62
  %23 = getelementptr inbounds nuw %struct.CostInterval, ptr %22, i32 0, i32 4
  store ptr %21, ptr %23, align 8, !tbaa !87
  br label %24

24:                                               ; preds = %20, %17
  ret void
}

; Function Attrs: inlinehint nounwind uwtable
define internal void @UpdateCost(ptr noundef %0, i32 noundef %1, i32 noundef %2, i64 noundef %3) #3 {
  %5 = alloca ptr, align 8
  %6 = alloca i32, align 4
  %7 = alloca i32, align 4
  %8 = alloca i64, align 8
  %9 = alloca i32, align 4
  store ptr %0, ptr %5, align 8, !tbaa !18
  store i32 %1, ptr %6, align 4, !tbaa !3
  store i32 %2, ptr %7, align 4, !tbaa !3
  store i64 %3, ptr %8, align 8, !tbaa !16
  call void @llvm.lifetime.start.p0(i64 4, ptr %9) #7
  %10 = load i32, ptr %6, align 4, !tbaa !3
  %11 = load i32, ptr %7, align 4, !tbaa !3
  %12 = sub nsw i32 %10, %11
  store i32 %12, ptr %9, align 4, !tbaa !3
  %13 = load ptr, ptr %5, align 8, !tbaa !18
  %14 = getelementptr inbounds nuw %struct.CostManager, ptr %13, i32 0, i32 5
  %15 = load ptr, ptr %14, align 8, !tbaa !23
  %16 = load i32, ptr %6, align 4, !tbaa !3
  %17 = sext i32 %16 to i64
  %18 = getelementptr inbounds i64, ptr %15, i64 %17
  %19 = load i64, ptr %18, align 8, !tbaa !16
  %20 = load i64, ptr %8, align 8, !tbaa !16
  %21 = icmp sgt i64 %19, %20
  br i1 %21, label %22, label %39

22:                                               ; preds = %4
  %23 = load i64, ptr %8, align 8, !tbaa !16
  %24 = load ptr, ptr %5, align 8, !tbaa !18
  %25 = getelementptr inbounds nuw %struct.CostManager, ptr %24, i32 0, i32 5
  %26 = load ptr, ptr %25, align 8, !tbaa !23
  %27 = load i32, ptr %6, align 4, !tbaa !3
  %28 = sext i32 %27 to i64
  %29 = getelementptr inbounds i64, ptr %26, i64 %28
  store i64 %23, ptr %29, align 8, !tbaa !16
  %30 = load i32, ptr %9, align 4, !tbaa !3
  %31 = add nsw i32 %30, 1
  %32 = trunc i32 %31 to i16
  %33 = load ptr, ptr %5, align 8, !tbaa !18
  %34 = getelementptr inbounds nuw %struct.CostManager, ptr %33, i32 0, i32 6
  %35 = load ptr, ptr %34, align 8, !tbaa !51
  %36 = load i32, ptr %6, align 4, !tbaa !3
  %37 = sext i32 %36 to i64
  %38 = getelementptr inbounds i16, ptr %35, i64 %37
  store i16 %32, ptr %38, align 2, !tbaa !21
  br label %39

39:                                               ; preds = %22, %4
  call void @llvm.lifetime.end.p0(i64 4, ptr %9) #7
  ret void
}

; Function Attrs: inlinehint nounwind uwtable
define internal void @PositionOrphanInterval(ptr noundef %0, ptr noundef %1, ptr noundef %2) #3 {
  %4 = alloca ptr, align 8
  %5 = alloca ptr, align 8
  %6 = alloca ptr, align 8
  store ptr %0, ptr %4, align 8, !tbaa !18
  store ptr %1, ptr %5, align 8, !tbaa !62
  store ptr %2, ptr %6, align 8, !tbaa !62
  %7 = load ptr, ptr %6, align 8, !tbaa !62
  %8 = icmp eq ptr %7, null
  br i1 %8, label %9, label %13

9:                                                ; preds = %3
  %10 = load ptr, ptr %4, align 8, !tbaa !18
  %11 = getelementptr inbounds nuw %struct.CostManager, ptr %10, i32 0, i32 0
  %12 = load ptr, ptr %11, align 8, !tbaa !48
  store ptr %12, ptr %6, align 8, !tbaa !62
  br label %13

13:                                               ; preds = %9, %3
  br label %14

14:                                               ; preds = %27, %13
  %15 = load ptr, ptr %6, align 8, !tbaa !62
  %16 = icmp ne ptr %15, null
  br i1 %16, label %17, label %25

17:                                               ; preds = %14
  %18 = load ptr, ptr %5, align 8, !tbaa !62
  %19 = getelementptr inbounds nuw %struct.CostInterval, ptr %18, i32 0, i32 1
  %20 = load i32, ptr %19, align 8, !tbaa !64
  %21 = load ptr, ptr %6, align 8, !tbaa !62
  %22 = getelementptr inbounds nuw %struct.CostInterval, ptr %21, i32 0, i32 1
  %23 = load i32, ptr %22, align 8, !tbaa !64
  %24 = icmp slt i32 %20, %23
  br label %25

25:                                               ; preds = %17, %14
  %26 = phi i1 [ false, %14 ], [ %24, %17 ]
  br i1 %26, label %27, label %31

27:                                               ; preds = %25
  %28 = load ptr, ptr %6, align 8, !tbaa !62
  %29 = getelementptr inbounds nuw %struct.CostInterval, ptr %28, i32 0, i32 4
  %30 = load ptr, ptr %29, align 8, !tbaa !87
  store ptr %30, ptr %6, align 8, !tbaa !62
  br label %14, !llvm.loop !89

31:                                               ; preds = %25
  br label %32

32:                                               ; preds = %52, %31
  %33 = load ptr, ptr %6, align 8, !tbaa !62
  %34 = icmp ne ptr %33, null
  br i1 %34, label %35, label %50

35:                                               ; preds = %32
  %36 = load ptr, ptr %6, align 8, !tbaa !62
  %37 = getelementptr inbounds nuw %struct.CostInterval, ptr %36, i32 0, i32 5
  %38 = load ptr, ptr %37, align 8, !tbaa !66
  %39 = icmp ne ptr %38, null
  br i1 %39, label %40, label %50

40:                                               ; preds = %35
  %41 = load ptr, ptr %6, align 8, !tbaa !62
  %42 = getelementptr inbounds nuw %struct.CostInterval, ptr %41, i32 0, i32 5
  %43 = load ptr, ptr %42, align 8, !tbaa !66
  %44 = getelementptr inbounds nuw %struct.CostInterval, ptr %43, i32 0, i32 1
  %45 = load i32, ptr %44, align 8, !tbaa !64
  %46 = load ptr, ptr %5, align 8, !tbaa !62
  %47 = getelementptr inbounds nuw %struct.CostInterval, ptr %46, i32 0, i32 1
  %48 = load i32, ptr %47, align 8, !tbaa !64
  %49 = icmp slt i32 %45, %48
  br label %50

50:                                               ; preds = %40, %35, %32
  %51 = phi i1 [ false, %35 ], [ false, %32 ], [ %49, %40 ]
  br i1 %51, label %52, label %56

52:                                               ; preds = %50
  %53 = load ptr, ptr %6, align 8, !tbaa !62
  %54 = getelementptr inbounds nuw %struct.CostInterval, ptr %53, i32 0, i32 5
  %55 = load ptr, ptr %54, align 8, !tbaa !66
  store ptr %55, ptr %6, align 8, !tbaa !62
  br label %32, !llvm.loop !90

56:                                               ; preds = %50
  %57 = load ptr, ptr %6, align 8, !tbaa !62
  %58 = icmp ne ptr %57, null
  br i1 %58, label %59, label %65

59:                                               ; preds = %56
  %60 = load ptr, ptr %4, align 8, !tbaa !18
  %61 = load ptr, ptr %5, align 8, !tbaa !62
  %62 = load ptr, ptr %6, align 8, !tbaa !62
  %63 = getelementptr inbounds nuw %struct.CostInterval, ptr %62, i32 0, i32 5
  %64 = load ptr, ptr %63, align 8, !tbaa !66
  call void @ConnectIntervals(ptr noundef %60, ptr noundef %61, ptr noundef %64)
  br label %71

65:                                               ; preds = %56
  %66 = load ptr, ptr %4, align 8, !tbaa !18
  %67 = load ptr, ptr %5, align 8, !tbaa !62
  %68 = load ptr, ptr %4, align 8, !tbaa !18
  %69 = getelementptr inbounds nuw %struct.CostManager, ptr %68, i32 0, i32 0
  %70 = load ptr, ptr %69, align 8, !tbaa !48
  call void @ConnectIntervals(ptr noundef %66, ptr noundef %67, ptr noundef %70)
  br label %71

71:                                               ; preds = %65, %59
  %72 = load ptr, ptr %4, align 8, !tbaa !18
  %73 = load ptr, ptr %6, align 8, !tbaa !62
  %74 = load ptr, ptr %5, align 8, !tbaa !62
  call void @ConnectIntervals(ptr noundef %72, ptr noundef %73, ptr noundef %74)
  ret void
}

; Function Attrs: inlinehint nounwind uwtable
define internal void @UpdateCostPerInterval(ptr noundef %0, i32 noundef %1, i32 noundef %2, i32 noundef %3, i64 noundef %4) #3 {
  %6 = alloca ptr, align 8
  %7 = alloca i32, align 4
  %8 = alloca i32, align 4
  %9 = alloca i32, align 4
  %10 = alloca i64, align 8
  %11 = alloca i32, align 4
  store ptr %0, ptr %6, align 8, !tbaa !18
  store i32 %1, ptr %7, align 4, !tbaa !3
  store i32 %2, ptr %8, align 4, !tbaa !3
  store i32 %3, ptr %9, align 4, !tbaa !3
  store i64 %4, ptr %10, align 8, !tbaa !16
  call void @llvm.lifetime.start.p0(i64 4, ptr %11) #7
  %12 = load i32, ptr %7, align 4, !tbaa !3
  store i32 %12, ptr %11, align 4, !tbaa !3
  br label %13

13:                                               ; preds = %22, %5
  %14 = load i32, ptr %11, align 4, !tbaa !3
  %15 = load i32, ptr %8, align 4, !tbaa !3
  %16 = icmp slt i32 %14, %15
  br i1 %16, label %17, label %25

17:                                               ; preds = %13
  %18 = load ptr, ptr %6, align 8, !tbaa !18
  %19 = load i32, ptr %11, align 4, !tbaa !3
  %20 = load i32, ptr %9, align 4, !tbaa !3
  %21 = load i64, ptr %10, align 8, !tbaa !16
  call void @UpdateCost(ptr noundef %18, i32 noundef %19, i32 noundef %20, i64 noundef %21)
  br label %22

22:                                               ; preds = %17
  %23 = load i32, ptr %11, align 4, !tbaa !3
  %24 = add nsw i32 %23, 1
  store i32 %24, ptr %11, align 4, !tbaa !3
  br label %13, !llvm.loop !88

25:                                               ; preds = %13
  call void @llvm.lifetime.end.p0(i64 4, ptr %11) #7
  ret void
}

; Function Attrs: inlinehint nounwind uwtable
define internal void @InsertInterval(ptr noundef %0, ptr noundef %1, i64 noundef %2, i32 noundef %3, i32 noundef %4, i32 noundef %5) #3 {
  %7 = alloca ptr, align 8
  %8 = alloca ptr, align 8
  %9 = alloca i64, align 8
  %10 = alloca i32, align 4
  %11 = alloca i32, align 4
  %12 = alloca i32, align 4
  %13 = alloca ptr, align 8
  %14 = alloca i32, align 4
  store ptr %0, ptr %7, align 8, !tbaa !18
  store ptr %1, ptr %8, align 8, !tbaa !62
  store i64 %2, ptr %9, align 8, !tbaa !16
  store i32 %3, ptr %10, align 4, !tbaa !3
  store i32 %4, ptr %11, align 4, !tbaa !3
  store i32 %5, ptr %12, align 4, !tbaa !3
  call void @llvm.lifetime.start.p0(i64 8, ptr %13) #7
  %15 = load i32, ptr %11, align 4, !tbaa !3
  %16 = load i32, ptr %12, align 4, !tbaa !3
  %17 = icmp sge i32 %15, %16
  br i1 %17, label %18, label %19

18:                                               ; preds = %6
  store i32 1, ptr %14, align 4
  br label %90

19:                                               ; preds = %6
  %20 = load ptr, ptr %7, align 8, !tbaa !18
  %21 = getelementptr inbounds nuw %struct.CostManager, ptr %20, i32 0, i32 1
  %22 = load i32, ptr %21, align 8, !tbaa !50
  %23 = icmp sge i32 %22, 500
  br i1 %23, label %24, label %30

24:                                               ; preds = %19
  %25 = load ptr, ptr %7, align 8, !tbaa !18
  %26 = load i32, ptr %11, align 4, !tbaa !3
  %27 = load i32, ptr %12, align 4, !tbaa !3
  %28 = load i32, ptr %10, align 4, !tbaa !3
  %29 = load i64, ptr %9, align 8, !tbaa !16
  call void @UpdateCostPerInterval(ptr noundef %25, i32 noundef %26, i32 noundef %27, i32 noundef %28, i64 noundef %29)
  store i32 1, ptr %14, align 4
  br label %90

30:                                               ; preds = %19
  %31 = load ptr, ptr %7, align 8, !tbaa !18
  %32 = getelementptr inbounds nuw %struct.CostManager, ptr %31, i32 0, i32 8
  %33 = load ptr, ptr %32, align 8, !tbaa !76
  %34 = icmp ne ptr %33, null
  br i1 %34, label %35, label %44

35:                                               ; preds = %30
  %36 = load ptr, ptr %7, align 8, !tbaa !18
  %37 = getelementptr inbounds nuw %struct.CostManager, ptr %36, i32 0, i32 8
  %38 = load ptr, ptr %37, align 8, !tbaa !76
  store ptr %38, ptr %13, align 8, !tbaa !62
  %39 = load ptr, ptr %13, align 8, !tbaa !62
  %40 = getelementptr inbounds nuw %struct.CostInterval, ptr %39, i32 0, i32 5
  %41 = load ptr, ptr %40, align 8, !tbaa !66
  %42 = load ptr, ptr %7, align 8, !tbaa !18
  %43 = getelementptr inbounds nuw %struct.CostManager, ptr %42, i32 0, i32 8
  store ptr %41, ptr %43, align 8, !tbaa !76
  br label %70

44:                                               ; preds = %30
  %45 = load ptr, ptr %7, align 8, !tbaa !18
  %46 = getelementptr inbounds nuw %struct.CostManager, ptr %45, i32 0, i32 9
  %47 = load ptr, ptr %46, align 8, !tbaa !49
  %48 = icmp ne ptr %47, null
  br i1 %48, label %49, label %58

49:                                               ; preds = %44
  %50 = load ptr, ptr %7, align 8, !tbaa !18
  %51 = getelementptr inbounds nuw %struct.CostManager, ptr %50, i32 0, i32 9
  %52 = load ptr, ptr %51, align 8, !tbaa !49
  store ptr %52, ptr %13, align 8, !tbaa !62
  %53 = load ptr, ptr %13, align 8, !tbaa !62
  %54 = getelementptr inbounds nuw %struct.CostInterval, ptr %53, i32 0, i32 5
  %55 = load ptr, ptr %54, align 8, !tbaa !66
  %56 = load ptr, ptr %7, align 8, !tbaa !18
  %57 = getelementptr inbounds nuw %struct.CostManager, ptr %56, i32 0, i32 9
  store ptr %55, ptr %57, align 8, !tbaa !49
  br label %69

58:                                               ; preds = %44
  %59 = call ptr @WebPSafeMalloc(i64 noundef 1, i64 noundef 40)
  store ptr %59, ptr %13, align 8, !tbaa !62
  %60 = load ptr, ptr %13, align 8, !tbaa !62
  %61 = icmp eq ptr %60, null
  br i1 %61, label %62, label %68

62:                                               ; preds = %58
  %63 = load ptr, ptr %7, align 8, !tbaa !18
  %64 = load i32, ptr %11, align 4, !tbaa !3
  %65 = load i32, ptr %12, align 4, !tbaa !3
  %66 = load i32, ptr %10, align 4, !tbaa !3
  %67 = load i64, ptr %9, align 8, !tbaa !16
  call void @UpdateCostPerInterval(ptr noundef %63, i32 noundef %64, i32 noundef %65, i32 noundef %66, i64 noundef %67)
  store i32 1, ptr %14, align 4
  br label %90

68:                                               ; preds = %58
  br label %69

69:                                               ; preds = %68, %49
  br label %70

70:                                               ; preds = %69, %35
  %71 = load i64, ptr %9, align 8, !tbaa !16
  %72 = load ptr, ptr %13, align 8, !tbaa !62
  %73 = getelementptr inbounds nuw %struct.CostInterval, ptr %72, i32 0, i32 0
  store i64 %71, ptr %73, align 8, !tbaa !68
  %74 = load i32, ptr %10, align 4, !tbaa !3
  %75 = load ptr, ptr %13, align 8, !tbaa !62
  %76 = getelementptr inbounds nuw %struct.CostInterval, ptr %75, i32 0, i32 3
  store i32 %74, ptr %76, align 8, !tbaa !69
  %77 = load i32, ptr %11, align 4, !tbaa !3
  %78 = load ptr, ptr %13, align 8, !tbaa !62
  %79 = getelementptr inbounds nuw %struct.CostInterval, ptr %78, i32 0, i32 1
  store i32 %77, ptr %79, align 8, !tbaa !64
  %80 = load i32, ptr %12, align 4, !tbaa !3
  %81 = load ptr, ptr %13, align 8, !tbaa !62
  %82 = getelementptr inbounds nuw %struct.CostInterval, ptr %81, i32 0, i32 2
  store i32 %80, ptr %82, align 4, !tbaa !67
  %83 = load ptr, ptr %7, align 8, !tbaa !18
  %84 = load ptr, ptr %13, align 8, !tbaa !62
  %85 = load ptr, ptr %8, align 8, !tbaa !62
  call void @PositionOrphanInterval(ptr noundef %83, ptr noundef %84, ptr noundef %85)
  %86 = load ptr, ptr %7, align 8, !tbaa !18
  %87 = getelementptr inbounds nuw %struct.CostManager, ptr %86, i32 0, i32 1
  %88 = load i32, ptr %87, align 8, !tbaa !50
  %89 = add nsw i32 %88, 1
  store i32 %89, ptr %87, align 8, !tbaa !50
  store i32 0, ptr %14, align 4
  br label %90

90:                                               ; preds = %70, %62, %24, %18
  call void @llvm.lifetime.end.p0(i64 8, ptr %13) #7
  %91 = load i32, ptr %14, align 4
  switch i32 %91, label %93 [
    i32 0, label %92
    i32 1, label %92
  ]

92:                                               ; preds = %90, %90
  ret void

93:                                               ; preds = %90
  unreachable
}