; Function Attrs: inlinehint nounwind uwtable
define internal fastcc void @InsertInterval(ptr noundef nonnull captures(none) %0, ptr noundef %1, i64 noundef %2, i32 noundef %3, i32 noundef %4, i32 noundef %5) unnamed_addr #3 {
  %.not = icmp slt i32 %4, %5
  br i1 %.not, label %7, label %UpdateCostPerInterval.exit

7:                                                ; preds = %6
  %8 = getelementptr inbounds nuw i8, ptr %0, i64 8
  %9 = load i32, ptr %8, align 8, !tbaa !32
  %10 = icmp sgt i32 %9, 499
  br i1 %10, label %.lr.ph.i, label %26

.lr.ph.i:                                         ; preds = %7
  %11 = getelementptr inbounds nuw i8, ptr %0, i64 32792
  %12 = load ptr, ptr %11, align 8, !tbaa !24
  %13 = getelementptr inbounds nuw i8, ptr %0, i64 32800
  %14 = sext i32 %4 to i64
  %wide.trip.count.i = sext i32 %5 to i64
  br label %15

15:                                               ; preds = %UpdateCost.exit.i, %.lr.ph.i
  %indvars.iv.i = phi i64 [ %14, %.lr.ph.i ], [ %indvars.iv.next.i, %UpdateCost.exit.i ]
  %16 = getelementptr inbounds i64, ptr %12, i64 %indvars.iv.i
  %17 = load i64, ptr %16, align 8, !tbaa !40
  %18 = icmp sgt i64 %17, %2
  br i1 %18, label %19, label %UpdateCost.exit.i

19:                                               ; preds = %15
  store i64 %2, ptr %16, align 8, !tbaa !40
  %20 = trunc i64 %indvars.iv.i to i32
  %21 = sub i32 %20, %3
  %22 = trunc i32 %21 to i16
  %23 = add i16 %22, 1
  %24 = load ptr, ptr %13, align 8, !tbaa !33
  %25 = getelementptr inbounds i16, ptr %24, i64 %indvars.iv.i
  store i16 %23, ptr %25, align 2, !tbaa !49
  br label %UpdateCost.exit.i

UpdateCost.exit.i:                                ; preds = %19, %15
  %indvars.iv.next.i = add nsw i64 %indvars.iv.i, 1
  %exitcond.not.i = icmp eq i64 %indvars.iv.next.i, %wide.trip.count.i
  br i1 %exitcond.not.i, label %UpdateCostPerInterval.exit, label %15, !llvm.loop !75

26:                                               ; preds = %7
  %27 = getelementptr inbounds nuw i8, ptr %0, i64 33208
  %28 = load ptr, ptr %27, align 8, !tbaa !37
  %.not38 = icmp eq ptr %28, null
  br i1 %.not38, label %32, label %29

29:                                               ; preds = %26
  %30 = getelementptr inbounds nuw i8, ptr %28, i64 32
  %31 = load ptr, ptr %30, align 8, !tbaa !34
  store ptr %31, ptr %27, align 8, !tbaa !37
  br label %56

32:                                               ; preds = %26
  %33 = getelementptr inbounds nuw i8, ptr %0, i64 33216
  %34 = load ptr, ptr %33, align 8, !tbaa !31
  %.not39 = icmp eq ptr %34, null
  br i1 %.not39, label %38, label %35

35:                                               ; preds = %32
  %36 = getelementptr inbounds nuw i8, ptr %34, i64 32
  %37 = load ptr, ptr %36, align 8, !tbaa !34
  store ptr %37, ptr %33, align 8, !tbaa !31
  br label %56

38:                                               ; preds = %32
  %39 = tail call ptr @WebPSafeMalloc(i64 noundef 1, i64 noundef 40) #7
  %40 = icmp eq ptr %39, null
  br i1 %40, label %.lr.ph.i40, label %56

.lr.ph.i40:                                       ; preds = %38
  %41 = getelementptr inbounds nuw i8, ptr %0, i64 32792
  %42 = load ptr, ptr %41, align 8, !tbaa !24
  %43 = getelementptr inbounds nuw i8, ptr %0, i64 32800
  %44 = sext i32 %4 to i64
  %wide.trip.count.i41 = sext i32 %5 to i64
  br label %45

45:                                               ; preds = %UpdateCost.exit.i43, %.lr.ph.i40
  %indvars.iv.i42 = phi i64 [ %44, %.lr.ph.i40 ], [ %indvars.iv.next.i44, %UpdateCost.exit.i43 ]
  %46 = getelementptr inbounds i64, ptr %42, i64 %indvars.iv.i42
  %47 = load i64, ptr %46, align 8, !tbaa !40
  %48 = icmp sgt i64 %47, %2
  br i1 %48, label %49, label %UpdateCost.exit.i43

49:                                               ; preds = %45
  store i64 %2, ptr %46, align 8, !tbaa !40
  %50 = trunc i64 %indvars.iv.i42 to i32
  %51 = sub i32 %50, %3
  %52 = trunc i32 %51 to i16
  %53 = add i16 %52, 1
  %54 = load ptr, ptr %43, align 8, !tbaa !33
  %55 = getelementptr inbounds i16, ptr %54, i64 %indvars.iv.i42
  store i16 %53, ptr %55, align 2, !tbaa !49
  br label %UpdateCost.exit.i43

UpdateCost.exit.i43:                              ; preds = %49, %45
  %indvars.iv.next.i44 = add nsw i64 %indvars.iv.i42, 1
  %exitcond.not.i45 = icmp eq i64 %indvars.iv.next.i44, %wide.trip.count.i41
  br i1 %exitcond.not.i45, label %UpdateCostPerInterval.exit, label %45, !llvm.loop !75

56:                                               ; preds = %35, %38, %29
  %.0 = phi ptr [ %28, %29 ], [ %34, %35 ], [ %39, %38 ]
  store i64 %2, ptr %.0, align 8, !tbaa !56
  %57 = getelementptr inbounds nuw i8, ptr %.0, i64 16
  store i32 %3, ptr %57, align 8, !tbaa !57
  %58 = getelementptr inbounds nuw i8, ptr %.0, i64 8
  store i32 %4, ptr %58, align 8, !tbaa !54
  %59 = getelementptr inbounds nuw i8, ptr %.0, i64 12
  store i32 %5, ptr %59, align 4, !tbaa !55
  %60 = icmp eq ptr %1, null
  br i1 %60, label %61, label %.lr.ph.i47.preheader

61:                                               ; preds = %56
  %62 = load ptr, ptr %0, align 8, !tbaa !30
  %.not42.i = icmp eq ptr %62, null
  br i1 %.not42.i, label %.critedge.i.preheader, label %.lr.ph.i47.preheader

.lr.ph.i47.preheader:                             ; preds = %61, %56
  %.143.i.ph = phi ptr [ %1, %56 ], [ %62, %61 ]
  br label %.lr.ph.i47

.lr.ph.i47:                                       ; preds = %.lr.ph.i47.preheader, %66
  %.143.i = phi ptr [ %68, %66 ], [ %.143.i.ph, %.lr.ph.i47.preheader ]
  %63 = getelementptr inbounds nuw i8, ptr %.143.i, i64 8
  %64 = load i32, ptr %63, align 8, !tbaa !54
  %65 = icmp slt i32 %4, %64
  br i1 %65, label %66, label %.critedge.i.preheader

66:                                               ; preds = %.lr.ph.i47
  %67 = getelementptr inbounds nuw i8, ptr %.143.i, i64 24
  %68 = load ptr, ptr %67, align 8, !tbaa !59
  %.not.i = icmp eq ptr %68, null
  br i1 %.not.i, label %.critedge.i.preheader, label %.lr.ph.i47, !llvm.loop !76

.critedge.i.preheader:                            ; preds = %66, %.lr.ph.i47, %61
  %.2.i.ph = phi ptr [ null, %61 ], [ null, %66 ], [ %.143.i, %.lr.ph.i47 ]
  br label %.critedge.i

.critedge.i:                                      ; preds = %.critedge.i.preheader, %74
  %.2.i = phi ptr [ %71, %74 ], [ %.2.i.ph, %.critedge.i.preheader ]
  %.not27.i = icmp eq ptr %.2.i, null
  br i1 %.not27.i, label %.critedge29.i, label %69

69:                                               ; preds = %.critedge.i
  %70 = getelementptr inbounds nuw i8, ptr %.2.i, i64 32
  %71 = load ptr, ptr %70, align 8, !tbaa !34
  %.not28.i = icmp eq ptr %71, null
  br i1 %.not28.i, label %.split.thread.i, label %74

.split.thread.i:                                  ; preds = %69
  %72 = getelementptr inbounds nuw i8, ptr %.2.i, i64 32
  %73 = getelementptr inbounds nuw i8, ptr %.0, i64 32
  store ptr null, ptr %73, align 8, !tbaa !34
  br label %PositionOrphanInterval.exit

74:                                               ; preds = %69
  %75 = getelementptr inbounds nuw i8, ptr %71, i64 8
  %76 = load i32, ptr %75, align 8, !tbaa !54
  %77 = icmp slt i32 %76, %4
  br i1 %77, label %.critedge.i, label %78, !llvm.loop !77

78:                                               ; preds = %74
  %79 = getelementptr inbounds nuw i8, ptr %.2.i, i64 32
  %80 = getelementptr inbounds nuw i8, ptr %.0, i64 32
  store ptr %71, ptr %80, align 8, !tbaa !34
  %81 = getelementptr inbounds nuw i8, ptr %71, i64 24
  store ptr %.0, ptr %81, align 8, !tbaa !59
  br label %PositionOrphanInterval.exit

.critedge29.i:                                    ; preds = %.critedge.i
  %82 = load ptr, ptr %0, align 8, !tbaa !30
  %83 = getelementptr inbounds nuw i8, ptr %.0, i64 32
  store ptr %82, ptr %83, align 8, !tbaa !34
  %.not9.i33.i = icmp eq ptr %82, null
  br i1 %.not9.i33.i, label %PositionOrphanInterval.exit, label %84

84:                                               ; preds = %.critedge29.i
  %85 = getelementptr inbounds nuw i8, ptr %82, i64 24
  store ptr %.0, ptr %85, align 8, !tbaa !59
  br label %PositionOrphanInterval.exit

PositionOrphanInterval.exit:                      ; preds = %.split.thread.i, %78, %.critedge29.i, %84
  %.sink62.i = phi ptr [ %72, %.split.thread.i ], [ %79, %78 ], [ %0, %.critedge29.i ], [ %0, %84 ]
  store ptr %.0, ptr %.sink62.i, align 8, !tbaa !60
  %86 = getelementptr inbounds nuw i8, ptr %.0, i64 24
  store ptr %.2.i, ptr %86, align 8, !tbaa !59
  %87 = load i32, ptr %8, align 8, !tbaa !32
  %88 = add nsw i32 %87, 1
  store i32 %88, ptr %8, align 8, !tbaa !32
  br label %UpdateCostPerInterval.exit

UpdateCostPerInterval.exit:                       ; preds = %UpdateCost.exit.i43, %UpdateCost.exit.i, %6, %PositionOrphanInterval.exit
  ret void
}